; Function Attrs: inlinehint nounwind uwtable
define internal fastcc ptr @lean_array_fget(ptr noundef readonly captures(none) %0, ptr noundef %1) unnamed_addr #0 {
  %3 = ptrtoint ptr %1 to i64
  %4 = lshr i64 %3, 1
  %5 = getelementptr inbounds nuw i8, ptr %0, i64 24
  %6 = getelementptr inbounds nuw [0 x ptr], ptr %5, i64 0, i64 %4
  %7 = load ptr, ptr %6, align 8, !tbaa !4
  %8 = ptrtoint ptr %7 to i64
  %9 = and i64 %8, 1
  %.not.i = icmp eq i64 %9, 0
  br i1 %.not.i, label %10, label %lean_array_uget.exit

10:                                               ; preds = %2
  %.val.i.i = load i32, ptr %7, align 4, !tbaa !8
  %11 = icmp sgt i32 %.val.i.i, 0
  br i1 %11, label %12, label %14, !prof !11

12:                                               ; preds = %10
  %13 = add nuw i32 %.val.i.i, 1
  store i32 %13, ptr %7, align 4, !tbaa !8
  br label %lean_array_uget.exit

14:                                               ; preds = %10
  %.not.i.i = icmp eq i32 %.val.i.i, 0
  br i1 %.not.i.i, label %lean_array_uget.exit, label %15

15:                                               ; preds = %14
  tail call void @lean_inc_ref_cold(ptr noundef nonnull %7) #8
  br label %lean_array_uget.exit

lean_array_uget.exit:                             ; preds = %2, %12, %14, %15
  ret ptr %7
}